target datalayout = "e-m:e-p270:32:32-p271:32:32-p272:64:64-i64:64-i128:128-f80:128-n8:16:32:64-S128"
target triple = "x86_64-pc-linux-gnu"

@.str.2 = private unnamed_addr constant [140 x i8] c"generated/home/dtcxzyw/WorkSpace/Projects/compilers/llvm-opt-benchmark/bench/bullet3/bullet3/src/Bullet3OpenCL/Initialize/b3OpenCLUtils.cpp\00", align 1
@.str.4 = private unnamed_addr constant [17 x i8] c"b3Error[%s,%d]:\0A\00", align 1
@.str.6 = private unnamed_addr constant [15 x i8] c"libOpenCL.so.1\00", align 1
@.str.7 = private unnamed_addr constant [13 x i8] c"libOpenCL.so\00", align 1
@.str.8 = private unnamed_addr constant [36 x i8] c"clewInit failed with error code %d\0A\00", align 1
@.str.9 = private unnamed_addr constant [30 x i8] c"clewInit succesfull using %s\0A\00", align 1
@__clewGetPlatformIDs = external global ptr, align 8

; Function Attrs: mustprogress uwtable
define dso_local noundef i32 @_Z22b3OpenCLUtils_clewInitv() #0 {
  %1 = alloca i32, align 4
  %2 = alloca ptr, align 8
  call void @llvm.lifetime.start.p0(i64 4, ptr %1) #9
  store i32 -1, ptr %1, align 4, !tbaa !12
  call void @llvm.lifetime.start.p0(i64 8, ptr %2) #9
  store ptr @.str.6, ptr %2, align 8, !tbaa !4
  %3 = load ptr, ptr %2, align 8, !tbaa !4
  %4 = call i32 @clewInit(ptr noundef %3)
  store i32 %4, ptr %1, align 4, !tbaa !12
  %5 = load i32, ptr %1, align 4, !tbaa !12
  %6 = icmp ne i32 %5, 0
  br i1 %6, label %7, label %8

7:                                                ; preds = %0
  store ptr @.str.7, ptr %2, align 8, !tbaa !4
  br label %9

8:                                                ; preds = %0
  call void @clewExit()
  br label %9

9:                                                ; preds = %8, %7
  %10 = load ptr, ptr %2, align 8, !tbaa !4
  %11 = call i32 @clewInit(ptr noundef %10)
  store i32 %11, ptr %1, align 4, !tbaa !12
  %12 = load i32, ptr %1, align 4, !tbaa !12
  %13 = icmp ne i32 %12, 0
  br i1 %13, label %14, label %19

14:                                               ; preds = %9
  br label %15

15:                                               ; preds = %14
  call void (ptr, ...) @b3OutputErrorMessageVarArgsInternal(ptr noundef @.str.4, ptr noundef @.str.2, i32 noundef 119)
  %16 = load i32, ptr %1, align 4, !tbaa !12
  call void (ptr, ...) @b3OutputErrorMessageVarArgsInternal(ptr noundef @.str.8, i32 noundef %16)
  br label %17

17:                                               ; preds = %15
  br label %18

18:                                               ; preds = %17
  br label %21

19:                                               ; preds = %9
  %20 = load ptr, ptr %2, align 8, !tbaa !4
  call void (ptr, ...) @b3OutputPrintfVarArgsInternal(ptr noundef @.str.9, ptr noundef %20)
  br label %21

21:                                               ; preds = %19, %18
  %22 = load i32, ptr %1, align 4, !tbaa !12
  call void @llvm.lifetime.end.p0(i64 8, ptr %2) #9
  call void @llvm.lifetime.end.p0(i64 4, ptr %1) #9
  ret i32 %22
}

; Function Attrs: mustprogress uwtable
define dso_local ptr @b3OpenCLUtils_getPlatform(i32 noundef %0, ptr noundef %1) #0 {
  %3 = alloca ptr, align 8
  %4 = alloca i32, align 4
  %5 = alloca ptr, align 8
  %6 = alloca ptr, align 8
  %7 = alloca i32, align 4
  %8 = alloca i32, align 4
  %9 = alloca i32, align 4
  %10 = alloca ptr, align 8
  %11 = alloca i32, align 4
  store i32 %0, ptr %4, align 4, !tbaa !12
  store ptr %1, ptr %5, align 8, !tbaa !14
  %12 = call noundef i32 @_Z22b3OpenCLUtils_clewInitv()
  call void @llvm.lifetime.start.p0(i64 8, ptr %6) #9
  store ptr null, ptr %6, align 8, !tbaa !16
  call void @llvm.lifetime.start.p0(i64 4, ptr %7) #9
  %13 = load i32, ptr %4, align 4, !tbaa !12
  store i32 %13, ptr %7, align 4, !tbaa !12
  call void @llvm.lifetime.start.p0(i64 4, ptr %8) #9
  call void @llvm.lifetime.start.p0(i64 4, ptr %9) #9
  %14 = load ptr, ptr @__clewGetPlatformIDs, align 8, !tbaa !9
  %15 = call i32 %14(i32 noundef 0, ptr noundef null, ptr noundef %8)
  store i32 %15, ptr %9, align 4, !tbaa !12
  %16 = load i32, ptr %7, align 4, !tbaa !12
  %17 = load i32, ptr %8, align 4, !tbaa !12
  %18 = icmp ult i32 %16, %17
  br i1 %18, label %19, label %48

19:                                               ; preds = %2
  call void @llvm.lifetime.start.p0(i64 8, ptr %10) #9
  %20 = load i32, ptr %8, align 4, !tbaa !12
  %21 = zext i32 %20 to i64
  %22 = mul i64 8, %21
  %23 = call noalias ptr @malloc(i64 noundef %22) #11
  store ptr %23, ptr %10, align 8, !tbaa !18
  %24 = load ptr, ptr @__clewGetPlatformIDs, align 8, !tbaa !9
  %25 = load i32, ptr %8, align 4, !tbaa !12
  %26 = load ptr, ptr %10, align 8, !tbaa !18
  %27 = call i32 %24(i32 noundef %25, ptr noundef %26, ptr noundef null)
  store i32 %27, ptr %9, align 4, !tbaa !12
  %28 = load i32, ptr %9, align 4, !tbaa !12
  %29 = icmp ne i32 %28, 0
  br i1 %29, label %30, label %38

30:                                               ; preds = %19
  %31 = load ptr, ptr %5, align 8, !tbaa !14
  %32 = icmp ne ptr %31, null
  br i1 %32, label %33, label %36

33:                                               ; preds = %30
  %34 = load i32, ptr %9, align 4, !tbaa !12
  %35 = load ptr, ptr %5, align 8, !tbaa !14
  store i32 %34, ptr %35, align 4, !tbaa !12
  br label %36

36:                                               ; preds = %33, %30
  %37 = load ptr, ptr %6, align 8, !tbaa !16
  store ptr %37, ptr %3, align 8
  store i32 1, ptr %11, align 4
  br label %45

38:                                               ; preds = %19
  %39 = load ptr, ptr %10, align 8, !tbaa !18
  %40 = load i32, ptr %7, align 4, !tbaa !12
  %41 = zext i32 %40 to i64
  %42 = getelementptr inbounds nuw ptr, ptr %39, i64 %41
  %43 = load ptr, ptr %42, align 8, !tbaa !16
  store ptr %43, ptr %6, align 8, !tbaa !16
  %44 = load ptr, ptr %10, align 8, !tbaa !18
  call void @free(ptr noundef %44) #9
  store i32 0, ptr %11, align 4
  br label %45

45:                                               ; preds = %38, %36
  call void @llvm.lifetime.end.p0(i64 8, ptr %10) #9
  %46 = load i32, ptr %11, align 4
  switch i32 %46, label %50 [
    i32 0, label %47
  ]

47:                                               ; preds = %45
  br label %48

48:                                               ; preds = %47, %2
  %49 = load ptr, ptr %6, align 8, !tbaa !16
  store ptr %49, ptr %3, align 8
  store i32 1, ptr %11, align 4
  br label %50

50:                                               ; preds = %48, %45
  call void @llvm.lifetime.end.p0(i64 4, ptr %9) #9
  call void @llvm.lifetime.end.p0(i64 4, ptr %8) #9
  call void @llvm.lifetime.end.p0(i64 4, ptr %7) #9
  call void @llvm.lifetime.end.p0(i64 8, ptr %6) #9
  %51 = load ptr, ptr %3, align 8
  ret ptr %51
}