; Function Attrs: mustprogress uwtable
define dso_local ptr @b3OpenCLUtils_getPlatform(i32 noundef %0, ptr noundef writeonly captures(address_is_null) %1) local_unnamed_addr #0 {
  %3 = alloca i32, align 4
  %4 = tail call i32 @clewInit(ptr noundef nonnull @.str.6)
  %.not.i = icmp eq i32 %4, 0
  br i1 %.not.i, label %5, label %6

5:                                                ; preds = %2
  tail call void @clewExit()
  br label %6

6:                                                ; preds = %5, %2
  %.0.i = phi ptr [ @.str.6, %5 ], [ @.str.7, %2 ]
  %7 = tail call i32 @clewInit(ptr noundef nonnull %.0.i)
  %.not7.i = icmp eq i32 %7, 0
  br i1 %.not7.i, label %9, label %8

8:                                                ; preds = %6
  tail call void (ptr, ...) @b3OutputErrorMessageVarArgsInternal(ptr noundef nonnull @.str.4, ptr noundef nonnull @.str.2, i32 noundef 119)
  tail call void (ptr, ...) @b3OutputErrorMessageVarArgsInternal(ptr noundef nonnull @.str.8, i32 noundef %7)
  br label %_Z22b3OpenCLUtils_clewInitv.exit

9:                                                ; preds = %6
  tail call void (ptr, ...) @b3OutputPrintfVarArgsInternal(ptr noundef nonnull @.str.9, ptr noundef nonnull %.0.i)
  br label %_Z22b3OpenCLUtils_clewInitv.exit

_Z22b3OpenCLUtils_clewInitv.exit:                 ; preds = %8, %9
  call void @llvm.lifetime.start.p0(i64 4, ptr nonnull %3) #12
  %10 = load ptr, ptr @__clewGetPlatformIDs, align 8, !tbaa !8
  %11 = call i32 %10(i32 noundef 0, ptr noundef null, ptr noundef nonnull %3)
  %12 = load i32, ptr %3, align 4, !tbaa !4
  %13 = icmp ult i32 %0, %12
  br i1 %13, label %14, label %26

14:                                               ; preds = %_Z22b3OpenCLUtils_clewInitv.exit
  %15 = zext i32 %12 to i64
  %16 = shl nuw nsw i64 %15, 3
  %17 = call noalias ptr @malloc(i64 noundef %16) #13
  %18 = load ptr, ptr @__clewGetPlatformIDs, align 8, !tbaa !8
  %19 = call i32 %18(i32 noundef %12, ptr noundef %17, ptr noundef null)
  %.not = icmp eq i32 %19, 0
  br i1 %.not, label %22, label %20

20:                                               ; preds = %14
  %.not20 = icmp eq ptr %1, null
  br i1 %.not20, label %26, label %21

21:                                               ; preds = %20
  store i32 %19, ptr %1, align 4, !tbaa !4
  br label %26

22:                                               ; preds = %14
  %23 = zext i32 %0 to i64
  %24 = getelementptr inbounds nuw ptr, ptr %17, i64 %23
  %25 = load ptr, ptr %24, align 8, !tbaa !12
  call void @free(ptr noundef %17) #12
  br label %26

26:                                               ; preds = %22, %21, %20, %_Z22b3OpenCLUtils_clewInitv.exit
  %.1 = phi ptr [ null, %_Z22b3OpenCLUtils_clewInitv.exit ], [ %25, %22 ], [ null, %21 ], [ null, %20 ]
  call void @llvm.lifetime.end.p0(i64 4, ptr nonnull %3) #12
  ret ptr %.1
}